target datalayout = "e-m:e-p270:32:32-p271:32:32-p272:64:64-i64:64-i128:128-f80:128-n8:16:32:64-S128"
target triple = "x86_64-unknown-linux-gnu"

; Function Attrs: mustprogress nounwind uwtable
define internal noundef signext i8 @_ZL9U_FAILURE10UErrorCode(i32 noundef %code) #1 {
entry:
  %code.addr = alloca i32, align 4
  store i32 %code, ptr %code.addr, align 4
  %0 = load i32, ptr %code.addr, align 4
  %cmp = icmp sgt i32 %0, 0
  %conv = zext i1 %cmp to i8
  ret i8 %conv
}

; Function Attrs: mustprogress uwtable
define i32 @ucol_getBound_75(ptr noundef %source, i32 noundef %sourceLength, i32 noundef %boundType, i32 noundef %noOfLevels, ptr noundef %result, i32 noundef %resultLength, ptr noundef %status) #0 {
entry:
  %retval = alloca i32, align 4
  %source.addr = alloca ptr, align 8
  %sourceLength.addr = alloca i32, align 4
  %boundType.addr = alloca i32, align 4
  %noOfLevels.addr = alloca i32, align 4
  %result.addr = alloca ptr, align 8
  %resultLength.addr = alloca i32, align 4
  %status.addr = alloca ptr, align 8
  %sourceIndex = alloca i32, align 4
  store ptr %source, ptr %source.addr, align 8
  store i32 %sourceLength, ptr %sourceLength.addr, align 4
  store i32 %boundType, ptr %boundType.addr, align 4
  store i32 %noOfLevels, ptr %noOfLevels.addr, align 4
  store ptr %result, ptr %result.addr, align 8
  store i32 %resultLength, ptr %resultLength.addr, align 4
  store ptr %status, ptr %status.addr, align 8
  %0 = load ptr, ptr %status.addr, align 8
  %cmp = icmp eq ptr %0, null
  br i1 %cmp, label %if.then, label %lor.lhs.false

lor.lhs.false:                                    ; preds = %entry
  %1 = load ptr, ptr %status.addr, align 8
  %2 = load i32, ptr %1, align 4
  %call = call noundef signext i8 @_ZL9U_FAILURE10UErrorCode(i32 noundef %2)
  %tobool = icmp ne i8 %call, 0
  br i1 %tobool, label %if.then, label %if.end

if.then:                                          ; preds = %lor.lhs.false, %entry
  store i32 0, ptr %retval, align 4
  br label %return

if.end:                                           ; preds = %lor.lhs.false
  %3 = load ptr, ptr %source.addr, align 8
  %cmp1 = icmp eq ptr %3, null
  br i1 %cmp1, label %if.then2, label %if.end3

if.then2:                                         ; preds = %if.end
  %4 = load ptr, ptr %status.addr, align 8
  store i32 1, ptr %4, align 4
  store i32 0, ptr %retval, align 4
  br label %return

if.end3:                                          ; preds = %if.end
  store i32 0, ptr %sourceIndex, align 4
  br label %do.body

do.body:                                          ; preds = %land.end, %if.end3
  %5 = load i32, ptr %sourceIndex, align 4
  %inc = add nsw i32 %5, 1
  store i32 %inc, ptr %sourceIndex, align 4
  %6 = load ptr, ptr %source.addr, align 8
  %7 = load i32, ptr %sourceIndex, align 4
  %idxprom = sext i32 %7 to i64
  %arrayidx = getelementptr inbounds i8, ptr %6, i64 %idxprom
  %8 = load i8, ptr %arrayidx, align 1
  %conv = zext i8 %8 to i32
  %cmp4 = icmp eq i32 %conv, 1
  br i1 %cmp4, label %if.then5, label %if.end6

if.then5:                                         ; preds = %do.body
  %9 = load i32, ptr %noOfLevels.addr, align 4
  %dec = add i32 %9, -1
  store i32 %dec, ptr %noOfLevels.addr, align 4
  br label %if.end6

if.end6:                                          ; preds = %if.then5, %do.body
  br label %do.cond

do.cond:                                          ; preds = %if.end6
  %10 = load i32, ptr %noOfLevels.addr, align 4
  %cmp7 = icmp ugt i32 %10, 0
  br i1 %cmp7, label %land.rhs, label %land.end

land.rhs:                                         ; preds = %do.cond
  %11 = load ptr, ptr %source.addr, align 8
  %12 = load i32, ptr %sourceIndex, align 4
  %idxprom8 = sext i32 %12 to i64
  %arrayidx9 = getelementptr inbounds i8, ptr %11, i64 %idxprom8
  %13 = load i8, ptr %arrayidx9, align 1
  %conv10 = zext i8 %13 to i32
  %cmp11 = icmp ne i32 %conv10, 0
  br i1 %cmp11, label %lor.end, label %lor.rhs

lor.rhs:                                          ; preds = %land.rhs
  %14 = load i32, ptr %sourceIndex, align 4
  %15 = load i32, ptr %sourceLength.addr, align 4
  %cmp12 = icmp slt i32 %14, %15
  br label %lor.end

lor.end:                                          ; preds = %lor.rhs, %land.rhs
  %16 = phi i1 [ true, %land.rhs ], [ %cmp12, %lor.rhs ]
  br label %land.end

land.end:                                         ; preds = %lor.end, %do.cond
  %17 = phi i1 [ false, %do.cond ], [ %16, %lor.end ]
  br i1 %17, label %do.body, label %do.end, !llvm.loop !9

do.end:                                           ; preds = %land.end
  %18 = load ptr, ptr %source.addr, align 8
  %19 = load i32, ptr %sourceIndex, align 4
  %idxprom13 = sext i32 %19 to i64
  %arrayidx14 = getelementptr inbounds i8, ptr %18, i64 %idxprom13
  %20 = load i8, ptr %arrayidx14, align 1
  %conv15 = zext i8 %20 to i32
  %cmp16 = icmp eq i32 %conv15, 0
  br i1 %cmp16, label %land.lhs.true, label %lor.lhs.false17

lor.lhs.false17:                                  ; preds = %do.end
  %21 = load i32, ptr %sourceIndex, align 4
  %22 = load i32, ptr %sourceLength.addr, align 4
  %cmp18 = icmp eq i32 %21, %22
  br i1 %cmp18, label %land.lhs.true, label %if.end21

land.lhs.true:                                    ; preds = %lor.lhs.false17, %do.end
  %23 = load i32, ptr %noOfLevels.addr, align 4
  %cmp19 = icmp ugt i32 %23, 0
  br i1 %cmp19, label %if.then20, label %if.end21

if.then20:                                        ; preds = %land.lhs.true
  %24 = load ptr, ptr %status.addr, align 8
  store i32 -123, ptr %24, align 4
  br label %if.end21

if.end21:                                         ; preds = %if.then20, %land.lhs.true, %lor.lhs.false17
  %25 = load ptr, ptr %result.addr, align 8
  %cmp22 = icmp ne ptr %25, null
  br i1 %cmp22, label %land.lhs.true23, label %if.else

land.lhs.true23:                                  ; preds = %if.end21
  %26 = load i32, ptr %resultLength.addr, align 4
  %27 = load i32, ptr %sourceIndex, align 4
  %28 = load i32, ptr %boundType.addr, align 4
  %add = add nsw i32 %27, %28
  %cmp24 = icmp sge i32 %26, %add
  br i1 %cmp24, label %if.then25, label %if.else

if.then25:                                        ; preds = %land.lhs.true23
  br label %do.body26

do.body26:                                        ; preds = %if.then25
  %29 = load ptr, ptr %result.addr, align 8
  %30 = load ptr, ptr %source.addr, align 8
  %31 = load i32, ptr %sourceIndex, align 4
  %conv27 = sext i32 %31 to i64
  call void @llvm.memcpy.p0.p0.i64(ptr align 1 %29, ptr align 1 %30, i64 %conv27, i1 false)
  br label %do.end29

do.end29:                                         ; preds = %do.body26
  %32 = load i32, ptr %boundType.addr, align 4
  switch i32 %32, label %sw.default [
    i32 0, label %sw.bb
    i32 1, label %sw.bb30
    i32 2, label %sw.bb34
  ]

sw.bb:                                            ; preds = %do.end29
  br label %sw.epilog

sw.bb30:                                          ; preds = %do.end29
  %33 = load ptr, ptr %result.addr, align 8
  %34 = load i32, ptr %sourceIndex, align 4
  %inc31 = add nsw i32 %34, 1
  store i32 %inc31, ptr %sourceIndex, align 4
  %idxprom32 = sext i32 %34 to i64
  %arrayidx33 = getelementptr inbounds i8, ptr %33, i64 %idxprom32
  store i8 2, ptr %arrayidx33, align 1
  br label %sw.epilog

sw.bb34:                                          ; preds = %do.end29
  %35 = load ptr, ptr %result.addr, align 8
  %36 = load i32, ptr %sourceIndex, align 4
  %inc35 = add nsw i32 %36, 1
  store i32 %inc35, ptr %sourceIndex, align 4
  %idxprom36 = sext i32 %36 to i64
  %arrayidx37 = getelementptr inbounds i8, ptr %35, i64 %idxprom36
  store i8 -1, ptr %arrayidx37, align 1
  %37 = load ptr, ptr %result.addr, align 8
  %38 = load i32, ptr %sourceIndex, align 4
  %inc38 = add nsw i32 %38, 1
  store i32 %inc38, ptr %sourceIndex, align 4
  %idxprom39 = sext i32 %38 to i64
  %arrayidx40 = getelementptr inbounds i8, ptr %37, i64 %idxprom39
  store i8 -1, ptr %arrayidx40, align 1
  br label %sw.epilog

sw.default:                                       ; preds = %do.end29
  %39 = load ptr, ptr %status.addr, align 8
  store i32 1, ptr %39, align 4
  store i32 0, ptr %retval, align 4
  br label %return

sw.epilog:                                        ; preds = %sw.bb34, %sw.bb30, %sw.bb
  %40 = load ptr, ptr %result.addr, align 8
  %41 = load i32, ptr %sourceIndex, align 4
  %inc41 = add nsw i32 %41, 1
  store i32 %inc41, ptr %sourceIndex, align 4
  %idxprom42 = sext i32 %41 to i64
  %arrayidx43 = getelementptr inbounds i8, ptr %40, i64 %idxprom42
  store i8 0, ptr %arrayidx43, align 1
  %42 = load i32, ptr %sourceIndex, align 4
  store i32 %42, ptr %retval, align 4
  br label %return

if.else:                                          ; preds = %land.lhs.true23, %if.end21
  %43 = load i32, ptr %sourceIndex, align 4
  %44 = load i32, ptr %boundType.addr, align 4
  %add44 = add nsw i32 %43, %44
  %add45 = add nsw i32 %add44, 1
  store i32 %add45, ptr %retval, align 4
  br label %return

return:                                           ; preds = %if.else, %sw.epilog, %sw.default, %if.then2, %if.then
  %45 = load i32, ptr %retval, align 4
  ret i32 %45
}