; Function Attrs: mustprogress nofree norecurse nosync nounwind memory(argmem: readwrite) uwtable
define i32 @ucol_getBound_75(ptr noundef readonly %source, i32 noundef %sourceLength, i32 noundef %boundType, i32 noundef %noOfLevels, ptr noundef writeonly %result, i32 noundef %resultLength, ptr noundef %status) local_unnamed_addr #5 {
entry:
  %cmp = icmp eq ptr %status, null
  br i1 %cmp, label %return, label %lor.lhs.false

lor.lhs.false:                                    ; preds = %entry
  %0 = load i32, ptr %status, align 4
  %cmp.i = icmp slt i32 %0, 1
  br i1 %cmp.i, label %if.end, label %return

if.end:                                           ; preds = %lor.lhs.false
  %cmp1 = icmp eq ptr %source, null
  br i1 %cmp1, label %if.then2, label %do.body.preheader

do.body.preheader:                                ; preds = %if.end
  %1 = sext i32 %sourceLength to i64
  br label %do.body

if.then2:                                         ; preds = %if.end
  store i32 1, ptr %status, align 4
  br label %return

do.body:                                          ; preds = %do.body.preheader, %land.rhs
  %indvars.iv = phi i64 [ 0, %do.body.preheader ], [ %indvars.iv.next, %land.rhs ]
  %noOfLevels.addr.0 = phi i32 [ %noOfLevels, %do.body.preheader ], [ %spec.select, %land.rhs ]
  %indvars.iv.next = add nuw nsw i64 %indvars.iv, 1
  %arrayidx = getelementptr inbounds i8, ptr %source, i64 %indvars.iv.next
  %2 = load i8, ptr %arrayidx, align 1
  %cmp4 = icmp eq i8 %2, 1
  %dec = sext i1 %cmp4 to i32
  %spec.select = add i32 %noOfLevels.addr.0, %dec
  %cmp7.not = icmp eq i32 %spec.select, 0
  br i1 %cmp7.not, label %if.end21, label %land.rhs

land.rhs:                                         ; preds = %do.body
  %cmp11 = icmp ne i8 %2, 0
  %cmp12 = icmp slt i64 %indvars.iv.next, %1
  %3 = or i1 %cmp11, %cmp12
  br i1 %3, label %do.body, label %if.then20, !llvm.loop !9

if.then20:                                        ; preds = %land.rhs
  store i32 -123, ptr %status, align 4
  br label %if.end21

if.end21:                                         ; preds = %do.body, %if.then20
  %inc45 = trunc i64 %indvars.iv.next to i32
  %sourceIndex.047 = trunc i64 %indvars.iv to i32
  %cmp22.not = icmp eq ptr %result, null
  %add = add nsw i32 %inc45, %boundType
  %cmp24.not = icmp sgt i32 %add, %resultLength
  %or.cond33 = select i1 %cmp22.not, i1 true, i1 %cmp24.not
  br i1 %or.cond33, label %if.else, label %do.body26

do.body26:                                        ; preds = %if.end21
  tail call void @llvm.memcpy.p0.p0.i64(ptr noundef nonnull align 1 dereferenceable(1) %result, ptr noundef nonnull align 1 dereferenceable(1) %source, i64 %indvars.iv.next, i1 false)
  switch i32 %boundType, label %sw.default [
    i32 0, label %sw.epilog
    i32 1, label %sw.bb30
    i32 2, label %sw.bb34
  ]

sw.bb30:                                          ; preds = %do.body26
  %inc31 = add nuw nsw i32 %sourceIndex.047, 2
  %arrayidx33 = getelementptr inbounds i8, ptr %result, i64 %indvars.iv.next
  store i8 2, ptr %arrayidx33, align 1
  br label %sw.epilog

sw.bb34:                                          ; preds = %do.body26
  %arrayidx37 = getelementptr inbounds i8, ptr %result, i64 %indvars.iv.next
  store i8 -1, ptr %arrayidx37, align 1
  %inc38 = add nuw nsw i32 %sourceIndex.047, 3
  %4 = and i64 %indvars.iv, 4294967295
  %5 = getelementptr i8, ptr %result, i64 %4
  %arrayidx40 = getelementptr i8, ptr %5, i64 2
  store i8 -1, ptr %arrayidx40, align 1
  br label %sw.epilog

sw.default:                                       ; preds = %do.body26
  store i32 1, ptr %status, align 4
  br label %return

sw.epilog:                                        ; preds = %do.body26, %sw.bb34, %sw.bb30
  %sourceIndex.1 = phi i32 [ %inc38, %sw.bb34 ], [ %inc31, %sw.bb30 ], [ %inc45, %do.body26 ]
  %inc41 = add nsw i32 %sourceIndex.1, 1
  %idxprom42 = sext i32 %sourceIndex.1 to i64
  %arrayidx43 = getelementptr inbounds i8, ptr %result, i64 %idxprom42
  store i8 0, ptr %arrayidx43, align 1
  br label %return

if.else:                                          ; preds = %if.end21
  %add45 = add nsw i32 %add, 1
  br label %return

return:                                           ; preds = %entry, %lor.lhs.false, %if.else, %sw.epilog, %sw.default, %if.then2
  %retval.0 = phi i32 [ 0, %if.then2 ], [ 0, %sw.default ], [ %inc41, %sw.epilog ], [ %add45, %if.else ], [ 0, %lor.lhs.false ], [ 0, %entry ]
  ret i32 %retval.0
}